target datalayout = "e-m:e-p270:32:32-p271:32:32-p272:64:64-i64:64-i128:128-f80:128-n8:16:32:64-S128"
target triple = "x86_64-pc-linux-gnu"

%struct.PJconsts = type { ptr, ptr, ptr, ptr, ptr, ptr, ptr, ptr, ptr, ptr, ptr, ptr, i32, ptr, ptr, ptr, ptr, ptr, ptr, ptr, ptr, double, double, double, double, double, double, double, double, double, double, double, double, double, double, double, double, double, double, double, double, double, double, i32, i32, i32, i32, i32, i32, i32, i32, i32, i32, i32, ptr, ptr, ptr, ptr, ptr, ptr, double, double, double, double, double, double, double, double, double, double, double, i32, [7 x double], i32, ptr, ptr, double, double, i32, [4 x i8], %"class.std::shared_ptr", i8, double, i8, %"class.std::__cxx11::basic_string", %"class.std::__cxx11::basic_string", %"class.std::__cxx11::basic_string", i8, %"class.std::vector", i32, %"class.std::vector.3", i32, i8, i8, i8, ptr }
%"class.std::shared_ptr" = type { %"class.std::__shared_ptr" }
%"class.std::__shared_ptr" = type { ptr, %"class.std::__shared_count" }
%"class.std::__shared_count" = type { ptr }
%"class.std::__cxx11::basic_string" = type { %"struct.std::__cxx11::basic_string<char>::_Alloc_hider", i64, %union.anon }
%"struct.std::__cxx11::basic_string<char>::_Alloc_hider" = type { ptr }
%union.anon = type { i64, [8 x i8] }
%"class.std::vector" = type { %"struct.std::_Vector_base" }
%"struct.std::_Vector_base" = type { %"struct.std::_Vector_base<osgeo::proj::operation::GridDescription, std::allocator<osgeo::proj::operation::GridDescription>>::_Vector_impl" }
%"struct.std::_Vector_base<osgeo::proj::operation::GridDescription, std::allocator<osgeo::proj::operation::GridDescription>>::_Vector_impl" = type { %"struct.std::_Vector_base<osgeo::proj::operation::GridDescription, std::allocator<osgeo::proj::operation::GridDescription>>::_Vector_impl_data" }
%"struct.std::_Vector_base<osgeo::proj::operation::GridDescription, std::allocator<osgeo::proj::operation::GridDescription>>::_Vector_impl_data" = type { ptr, ptr, ptr }
%"class.std::vector.3" = type { %"struct.std::_Vector_base.4" }
%"struct.std::_Vector_base.4" = type { %"struct.std::_Vector_base<PJCoordOperation, std::allocator<PJCoordOperation>>::_Vector_impl" }
%"struct.std::_Vector_base<PJCoordOperation, std::allocator<PJCoordOperation>>::_Vector_impl" = type { %"struct.std::_Vector_base<PJCoordOperation, std::allocator<PJCoordOperation>>::_Vector_impl_data" }
%"struct.std::_Vector_base<PJCoordOperation, std::allocator<PJCoordOperation>>::_Vector_impl_data" = type { ptr, ptr, ptr }
%union.PROJVALUE = type { double }

@.str.1 = private unnamed_addr constant [23 x i8] c"Invalid value for algo\00", align 1
@.str.3 = private unnamed_addr constant [54 x i8] c"Invalid value for eccentricity: it should not be zero\00", align 1
@.str.5 = private unnamed_addr constant [24 x i8] c"Invalid value for lon_0\00", align 1
@.str.6 = private unnamed_addr constant [7 x i8] c"bsouth\00", align 1
@.str.7 = private unnamed_addr constant [6 x i8] c"tzone\00", align 1
@.str.8 = private unnamed_addr constant [6 x i8] c"izone\00", align 1
@.str.9 = private unnamed_addr constant [23 x i8] c"Invalid value for zone\00", align 1

; Function Attrs: mustprogress uwtable
define hidden noundef ptr @_Z32pj_projection_specific_setup_utmP8PJconsts(ptr noundef %0) #0 {
  %2 = alloca ptr, align 8
  %3 = alloca ptr, align 8
  %4 = alloca i64, align 8
  %5 = alloca i32, align 4
  %6 = alloca %union.PROJVALUE, align 8
  %7 = alloca %union.PROJVALUE, align 8
  %8 = alloca %union.PROJVALUE, align 8
  %9 = alloca i32, align 4
  store ptr %0, ptr %3, align 8, !tbaa !3
  call void @llvm.lifetime.start.p0(i64 8, ptr %4) #11
  %10 = load ptr, ptr %3, align 8, !tbaa !3
  %11 = getelementptr inbounds nuw %struct.PJconsts, ptr %10, i32 0, i32 27
  %12 = load double, ptr %11, align 8, !tbaa !71
  %13 = fcmp oeq double %12, 0.000000e+00
  br i1 %13, label %14, label %18

14:                                               ; preds = %1
  %15 = load ptr, ptr %3, align 8, !tbaa !3
  call void (ptr, ptr, ...) @_Z14proj_log_errorPK8PJconstsPKcz(ptr noundef %15, ptr noundef @.str.3)
  %16 = load ptr, ptr %3, align 8, !tbaa !3
  %17 = call noundef ptr @_Z21pj_default_destructorP8PJconstsi(ptr noundef %16, i32 noundef 1027)
  store ptr %17, ptr %2, align 8
  store i32 1, ptr %5, align 4
  br label %125

18:                                               ; preds = %1
  %19 = load ptr, ptr %3, align 8, !tbaa !3
  %20 = getelementptr inbounds nuw %struct.PJconsts, ptr %19, i32 0, i32 60
  %21 = load double, ptr %20, align 8, !tbaa !80
  %22 = fcmp olt double %21, -1.000000e+03
  br i1 %22, label %28, label %23

23:                                               ; preds = %18
  %24 = load ptr, ptr %3, align 8, !tbaa !3
  %25 = getelementptr inbounds nuw %struct.PJconsts, ptr %24, i32 0, i32 60
  %26 = load double, ptr %25, align 8, !tbaa !80
  %27 = fcmp ogt double %26, 1.000000e+03
  br i1 %27, label %28, label %32

28:                                               ; preds = %23, %18
  %29 = load ptr, ptr %3, align 8, !tbaa !3
  call void (ptr, ptr, ...) @_Z14proj_log_errorPK8PJconstsPKcz(ptr noundef %29, ptr noundef @.str.5)
  %30 = load ptr, ptr %3, align 8, !tbaa !3
  %31 = call noundef ptr @_Z21pj_default_destructorP8PJconstsi(ptr noundef %30, i32 noundef 1027)
  store ptr %31, ptr %2, align 8
  store i32 1, ptr %5, align 4
  br label %125

32:                                               ; preds = %23
  call void @llvm.lifetime.start.p0(i64 8, ptr %6) #11
  %33 = load ptr, ptr %3, align 8, !tbaa !3
  %34 = getelementptr inbounds nuw %struct.PJconsts, ptr %33, i32 0, i32 0
  %35 = load ptr, ptr %34, align 8, !tbaa !44
  %36 = load ptr, ptr %3, align 8, !tbaa !3
  %37 = getelementptr inbounds nuw %struct.PJconsts, ptr %36, i32 0, i32 3
  %38 = load ptr, ptr %37, align 8, !tbaa !45
  %39 = call i64 @_Z8pj_paramP6pj_ctxP8ARG_listPKc(ptr noundef %35, ptr noundef %38, ptr noundef @.str.6)
  %40 = getelementptr inbounds nuw %union.PROJVALUE, ptr %6, i32 0, i32 0
  store i64 %39, ptr %40, align 8
  %41 = load i32, ptr %6, align 8, !tbaa !46
  %42 = icmp ne i32 %41, 0
  %43 = select i1 %42, double 1.000000e+07, double 0.000000e+00
  %44 = load ptr, ptr %3, align 8, !tbaa !3
  %45 = getelementptr inbounds nuw %struct.PJconsts, ptr %44, i32 0, i32 63
  store double %43, ptr %45, align 8, !tbaa !81
  call void @llvm.lifetime.end.p0(i64 8, ptr %6) #11
  %46 = load ptr, ptr %3, align 8, !tbaa !3
  %47 = getelementptr inbounds nuw %struct.PJconsts, ptr %46, i32 0, i32 62
  store double 5.000000e+05, ptr %47, align 8, !tbaa !82
  call void @llvm.lifetime.start.p0(i64 8, ptr %7) #11
  %48 = load ptr, ptr %3, align 8, !tbaa !3
  %49 = getelementptr inbounds nuw %struct.PJconsts, ptr %48, i32 0, i32 0
  %50 = load ptr, ptr %49, align 8, !tbaa !44
  %51 = load ptr, ptr %3, align 8, !tbaa !3
  %52 = getelementptr inbounds nuw %struct.PJconsts, ptr %51, i32 0, i32 3
  %53 = load ptr, ptr %52, align 8, !tbaa !45
  %54 = call i64 @_Z8pj_paramP6pj_ctxP8ARG_listPKc(ptr noundef %50, ptr noundef %53, ptr noundef @.str.7)
  %55 = getelementptr inbounds nuw %union.PROJVALUE, ptr %7, i32 0, i32 0
  store i64 %54, ptr %55, align 8
  %56 = load i32, ptr %7, align 8, !tbaa !46
  %57 = icmp ne i32 %56, 0
  call void @llvm.lifetime.end.p0(i64 8, ptr %7) #11
  br i1 %57, label %58, label %82

58:                                               ; preds = %32
  call void @llvm.lifetime.start.p0(i64 8, ptr %8) #11
  %59 = load ptr, ptr %3, align 8, !tbaa !3
  %60 = getelementptr inbounds nuw %struct.PJconsts, ptr %59, i32 0, i32 0
  %61 = load ptr, ptr %60, align 8, !tbaa !44
  %62 = load ptr, ptr %3, align 8, !tbaa !3
  %63 = getelementptr inbounds nuw %struct.PJconsts, ptr %62, i32 0, i32 3
  %64 = load ptr, ptr %63, align 8, !tbaa !45
  %65 = call i64 @_Z8pj_paramP6pj_ctxP8ARG_listPKc(ptr noundef %61, ptr noundef %64, ptr noundef @.str.8)
  %66 = getelementptr inbounds nuw %union.PROJVALUE, ptr %8, i32 0, i32 0
  store i64 %65, ptr %66, align 8
  %67 = load i32, ptr %8, align 8, !tbaa !46
  %68 = sext i32 %67 to i64
  store i64 %68, ptr %4, align 8, !tbaa !83
  call void @llvm.lifetime.end.p0(i64 8, ptr %8) #11
  %69 = load i64, ptr %4, align 8, !tbaa !83
  %70 = icmp sgt i64 %69, 0
  br i1 %70, label %71, label %77

71:                                               ; preds = %58
  %72 = load i64, ptr %4, align 8, !tbaa !83
  %73 = icmp sle i64 %72, 60
  br i1 %73, label %74, label %77

74:                                               ; preds = %71
  %75 = load i64, ptr %4, align 8, !tbaa !83
  %76 = add nsw i64 %75, -1
  store i64 %76, ptr %4, align 8, !tbaa !83
  br label %81

77:                                               ; preds = %71, %58
  %78 = load ptr, ptr %3, align 8, !tbaa !3
  call void (ptr, ptr, ...) @_Z14proj_log_errorPK8PJconstsPKcz(ptr noundef %78, ptr noundef @.str.9)
  %79 = load ptr, ptr %3, align 8, !tbaa !3
  %80 = call noundef ptr @_Z21pj_default_destructorP8PJconstsi(ptr noundef %79, i32 noundef 1027)
  store ptr %80, ptr %2, align 8
  store i32 1, ptr %5, align 4
  br label %125

81:                                               ; preds = %74
  br label %101

82:                                               ; preds = %32
  %83 = load ptr, ptr %3, align 8, !tbaa !3
  %84 = getelementptr inbounds nuw %struct.PJconsts, ptr %83, i32 0, i32 60
  %85 = load double, ptr %84, align 8, !tbaa !80
  %86 = call noundef double @_Z6adjlond(double noundef %85)
  %87 = fadd double %86, 0x400921FB54442D18
  %88 = fmul double %87, 3.000000e+01
  %89 = fdiv double %88, 0x400921FB54442D18
  %90 = call double @llvm.floor.f64(double %89)
  %91 = call i64 @lround(double noundef %90) #11, !tbaa !84
  store i64 %91, ptr %4, align 8, !tbaa !83
  %92 = load i64, ptr %4, align 8, !tbaa !83
  %93 = icmp slt i64 %92, 0
  br i1 %93, label %94, label %95

94:                                               ; preds = %82
  store i64 0, ptr %4, align 8, !tbaa !83
  br label %100

95:                                               ; preds = %82
  %96 = load i64, ptr %4, align 8, !tbaa !83
  %97 = icmp sge i64 %96, 60
  br i1 %97, label %98, label %99

98:                                               ; preds = %95
  store i64 59, ptr %4, align 8, !tbaa !83
  br label %99

99:                                               ; preds = %98, %95
  br label %100

100:                                              ; preds = %99, %94
  br label %101

101:                                              ; preds = %100, %81
  %102 = load i64, ptr %4, align 8, !tbaa !83
  %103 = sitofp i64 %102 to double
  %104 = fadd double %103, 5.000000e-01
  %105 = fmul double %104, 0x400921FB54442D18
  %106 = fdiv double %105, 3.000000e+01
  %107 = fsub double %106, 0x400921FB54442D18
  %108 = load ptr, ptr %3, align 8, !tbaa !3
  %109 = getelementptr inbounds nuw %struct.PJconsts, ptr %108, i32 0, i32 60
  store double %107, ptr %109, align 8, !tbaa !80
  %110 = load ptr, ptr %3, align 8, !tbaa !3
  %111 = getelementptr inbounds nuw %struct.PJconsts, ptr %110, i32 0, i32 66
  store double 9.996000e-01, ptr %111, align 8, !tbaa !73
  %112 = load ptr, ptr %3, align 8, !tbaa !3
  %113 = getelementptr inbounds nuw %struct.PJconsts, ptr %112, i32 0, i32 61
  store double 0.000000e+00, ptr %113, align 8, !tbaa !72
  call void @llvm.lifetime.start.p0(i64 4, ptr %9) #11
  %114 = load ptr, ptr %3, align 8, !tbaa !3
  %115 = call noundef zeroext i1 @_ZL17getAlgoFromParamsP8PJconstsR9TMercAlgo(ptr noundef %114, ptr noundef nonnull align 4 dereferenceable(4) %9)
  br i1 %115, label %120, label %116

116:                                              ; preds = %101
  %117 = load ptr, ptr %3, align 8, !tbaa !3
  call void (ptr, ptr, ...) @_Z14proj_log_errorPK8PJconstsPKcz(ptr noundef %117, ptr noundef @.str.1)
  %118 = load ptr, ptr %3, align 8, !tbaa !3
  %119 = call noundef ptr @_Z21pj_default_destructorP8PJconstsi(ptr noundef %118, i32 noundef 1027)
  store ptr %119, ptr %2, align 8
  store i32 1, ptr %5, align 4
  br label %124

120:                                              ; preds = %101
  %121 = load ptr, ptr %3, align 8, !tbaa !3
  %122 = load i32, ptr %9, align 4, !tbaa !41
  %123 = call noundef ptr @_ZL5setupP8PJconsts9TMercAlgo(ptr noundef %121, i32 noundef %122)
  store ptr %123, ptr %2, align 8
  store i32 1, ptr %5, align 4
  br label %124

124:                                              ; preds = %120, %116
  call void @llvm.lifetime.end.p0(i64 4, ptr %9) #11
  br label %125

125:                                              ; preds = %124, %77, %28, %14
  call void @llvm.lifetime.end.p0(i64 8, ptr %4) #11
  %126 = load ptr, ptr %2, align 8
  ret ptr %126
}