; Function Attrs: mustprogress uwtable
define hidden noundef ptr @_Z32pj_projection_specific_setup_utmP8PJconsts(ptr noundef %0) local_unnamed_addr #0 {
  %2 = alloca i32, align 4
  %3 = getelementptr inbounds nuw i8, ptr %0, i64 216
  %4 = load double, ptr %3, align 8, !tbaa !67
  %5 = fcmp oeq double %4, 0.000000e+00
  br i1 %5, label %6, label %8

6:                                                ; preds = %1
  tail call void (ptr, ptr, ...) @_Z14proj_log_errorPK8PJconstsPKcz(ptr noundef nonnull %0, ptr noundef nonnull @.str.3)
  %7 = tail call noundef ptr @_Z21pj_default_destructorP8PJconstsi(ptr noundef nonnull %0, i32 noundef 1027)
  br label %61

8:                                                ; preds = %1
  %9 = getelementptr inbounds nuw i8, ptr %0, i64 440
  %10 = load double, ptr %9, align 8, !tbaa !81
  %11 = tail call double @llvm.fabs.f64(double %10)
  %or.cond41 = fcmp ogt double %11, 1.000000e+03
  br i1 %or.cond41, label %12, label %14

12:                                               ; preds = %8
  tail call void (ptr, ptr, ...) @_Z14proj_log_errorPK8PJconstsPKcz(ptr noundef nonnull %0, ptr noundef nonnull @.str.5)
  %13 = tail call noundef ptr @_Z21pj_default_destructorP8PJconstsi(ptr noundef nonnull %0, i32 noundef 1027)
  br label %61

14:                                               ; preds = %8
  %15 = load ptr, ptr %0, align 8, !tbaa !42
  %16 = getelementptr inbounds nuw i8, ptr %0, i64 24
  %17 = load ptr, ptr %16, align 8, !tbaa !43
  %18 = tail call i64 @_Z8pj_paramP6pj_ctxP8ARG_listPKc(ptr noundef %15, ptr noundef %17, ptr noundef nonnull @.str.6)
  %19 = and i64 %18, 4294967295
  %.not = icmp eq i64 %19, 0
  %20 = select i1 %.not, double 0.000000e+00, double 1.000000e+07
  %21 = getelementptr inbounds nuw i8, ptr %0, i64 464
  store double %20, ptr %21, align 8, !tbaa !82
  %22 = getelementptr inbounds nuw i8, ptr %0, i64 456
  store double 5.000000e+05, ptr %22, align 8, !tbaa !83
  %23 = load ptr, ptr %0, align 8, !tbaa !42
  %24 = load ptr, ptr %16, align 8, !tbaa !43
  %25 = tail call i64 @_Z8pj_paramP6pj_ctxP8ARG_listPKc(ptr noundef %23, ptr noundef %24, ptr noundef nonnull @.str.7)
  %26 = and i64 %25, 4294967295
  %.not40 = icmp eq i64 %26, 0
  br i1 %.not40, label %35, label %27

27:                                               ; preds = %14
  %28 = load ptr, ptr %0, align 8, !tbaa !42
  %29 = load ptr, ptr %16, align 8, !tbaa !43
  %30 = tail call i64 @_Z8pj_paramP6pj_ctxP8ARG_listPKc(ptr noundef %28, ptr noundef %29, ptr noundef nonnull @.str.8)
  %sext = shl i64 %30, 32
  %31 = ashr exact i64 %sext, 32
  %32 = add nsw i64 %31, -1
  %or.cond = icmp ult i64 %32, 60
  br i1 %or.cond, label %46, label %33

33:                                               ; preds = %27
  tail call void (ptr, ptr, ...) @_Z14proj_log_errorPK8PJconstsPKcz(ptr noundef nonnull %0, ptr noundef nonnull @.str.9)
  %34 = tail call noundef ptr @_Z21pj_default_destructorP8PJconstsi(ptr noundef nonnull %0, i32 noundef 1027)
  br label %61

35:                                               ; preds = %14
  %36 = load double, ptr %9, align 8, !tbaa !81
  %37 = tail call noundef double @_Z6adjlond(double noundef %36)
  %38 = fadd double %37, 0x400921FB54442D18
  %39 = fmul double %38, 3.000000e+01
  %40 = fdiv double %39, 0x400921FB54442D18
  %41 = tail call double @llvm.floor.f64(double %40)
  %42 = tail call i64 @lround(double noundef %41) #11, !tbaa !76
  %43 = icmp slt i64 %42, 0
  br i1 %43, label %46, label %44

44:                                               ; preds = %35
  %45 = tail call i64 @llvm.umin.i64(i64 %42, i64 59)
  br label %46

46:                                               ; preds = %27, %35, %44
  %.036 = phi i64 [ %45, %44 ], [ 0, %35 ], [ %32, %27 ]
  %47 = uitofp nneg i64 %.036 to double
  %48 = fadd double %47, 5.000000e-01
  %49 = fmul double %48, 0x400921FB54442D18
  %50 = fdiv double %49, 3.000000e+01
  %51 = fadd double %50, 0xC00921FB54442D18
  store double %51, ptr %9, align 8, !tbaa !81
  %52 = getelementptr inbounds nuw i8, ptr %0, i64 488
  store double 9.996000e-01, ptr %52, align 8, !tbaa !69
  %53 = getelementptr inbounds nuw i8, ptr %0, i64 448
  store double 0.000000e+00, ptr %53, align 8, !tbaa !68
  call void @llvm.lifetime.start.p0(i64 4, ptr nonnull %2) #11
  %54 = call fastcc noundef zeroext i1 @_ZL17getAlgoFromParamsP8PJconstsR9TMercAlgo(ptr noundef nonnull %0, ptr noundef nonnull align 4 dereferenceable(4) %2)
  br i1 %54, label %57, label %55

55:                                               ; preds = %46
  tail call void (ptr, ptr, ...) @_Z14proj_log_errorPK8PJconstsPKcz(ptr noundef nonnull %0, ptr noundef nonnull @.str.1)
  %56 = tail call noundef ptr @_Z21pj_default_destructorP8PJconstsi(ptr noundef nonnull %0, i32 noundef 1027)
  br label %60

57:                                               ; preds = %46
  %58 = load i32, ptr %2, align 4, !tbaa !3
  %59 = tail call fastcc noundef ptr @_ZL5setupP8PJconsts9TMercAlgo(ptr noundef nonnull %0, i32 noundef %58)
  br label %60

60:                                               ; preds = %57, %55
  %.1 = phi ptr [ %59, %57 ], [ %56, %55 ]
  call void @llvm.lifetime.end.p0(i64 4, ptr nonnull %2) #11
  br label %61

61:                                               ; preds = %60, %33, %12, %6
  %.0 = phi ptr [ %7, %6 ], [ %13, %12 ], [ %.1, %60 ], [ %34, %33 ]
  ret ptr %.0
}